; Function Attrs: mustprogress uwtable
define hidden void @_ZN4cvc58internal6theory11quantifiers9SygusUnif23constructBestSolvedTermENS0_12NodeTemplateILb1EEERKSt6vectorIS5_SaIS5_EE(ptr noalias sret(%"class.cvc5::internal::NodeTemplate") align 8 %agg.result, ptr noundef nonnull align 8 dereferenceable(193) %this, ptr nocapture readnone %e, ptr nocapture noundef nonnull readonly align 8 dereferenceable(24) %solved) unnamed_addr #3 align 2 {
entry:
  %d_enableMinimality = getelementptr inbounds i8, ptr %this, i64 192
  %0 = load i8, ptr %d_enableMinimality, align 8
  %1 = and i8 %0, 1
  %tobool.not = icmp eq i8 %1, 0
  br i1 %tobool.not, label %if.end, label %if.then

if.then:                                          ; preds = %entry
  tail call void @_ZN4cvc58internal6theory11quantifiers9SygusUnif14getMinimalTermERKSt6vectorINS0_12NodeTemplateILb1EEESaIS6_EE(ptr sret(%"class.cvc5::internal::NodeTemplate") align 8 %agg.result, ptr noundef nonnull align 8 dereferenceable(193) %this, ptr noundef nonnull align 8 dereferenceable(24) %solved)
  br label %return

if.end:                                           ; preds = %entry
  %2 = load ptr, ptr %solved, align 8
  %3 = load ptr, ptr %2, align 8
  store ptr %3, ptr %agg.result, align 8
  %bf.load.i.i = load i64, ptr %3, align 8
  %bf.lshr.i.i = lshr i64 %bf.load.i.i, 40
  %4 = trunc i64 %bf.lshr.i.i to i32
  %bf.cast.i.i = and i32 %4, 1048575
  %cmp.i.i = icmp ult i32 %bf.cast.i.i, 1048574
  br i1 %cmp.i.i, label %if.then.i.i, label %if.else.i.i

if.then.i.i:                                      ; preds = %if.end
  %bf.value.i.i = add i64 %bf.load.i.i, 1099511627776
  %bf.shl.i.i = and i64 %bf.value.i.i, 1152920405095219200
  %bf.clear7.i.i = and i64 %bf.load.i.i, -1152920405095219201
  %bf.set.i.i = or disjoint i64 %bf.shl.i.i, %bf.clear7.i.i
  store i64 %bf.set.i.i, ptr %3, align 8
  br label %return

if.else.i.i:                                      ; preds = %if.end
  %cmp12.i.i = icmp eq i32 %bf.cast.i.i, 1048574
  br i1 %cmp12.i.i, label %if.then13.i.i, label %return

if.then13.i.i:                                    ; preds = %if.else.i.i
  %bf.set23.i.i = or i64 %bf.load.i.i, 1152920405095219200
  store i64 %bf.set23.i.i, ptr %3, align 8
  tail call void @_ZN4cvc58internal4expr9NodeValue20markRefCountMaxedOutEv(ptr noundef nonnull align 8 dereferenceable(16) %3)
  br label %return

return:                                           ; preds = %if.then13.i.i, %if.else.i.i, %if.then.i.i, %if.then
  ret void
}